target datalayout = "e-m:e-p270:32:32-p271:32:32-p272:64:64-i64:64-i128:128-f80:128-n8:16:32:64-S128"
target triple = "x86_64-unknown-linux-gnu"

%"class.QuantLib::Date" = type { i64 }
%"class.QuantLib::Bond::Price" = type <{ double, i32, [4 x i8] }>

; Function Attrs: mustprogress uwtable
define noundef double @_ZNK8QuantLib4Bond5yieldENS0_5PriceERKNS_10DayCounterENS_11CompoundingENS_9FrequencyENS_4DateEdmd(ptr noundef nonnull align 8 dereferenceable(248) %this, double %price.coerce0, i32 %price.coerce1, ptr noundef nonnull align 8 dereferenceable(16) %dc, i32 noundef %comp, i32 noundef %freq, i64 %settlement.coerce, double noundef %accuracy, i64 noundef %maxEvaluations, double noundef %guess) #2 align 2 {
entry:
  %retval = alloca double, align 8
  %price = alloca %"class.QuantLib::Bond::Price", align 8
  %settlement = alloca %"class.QuantLib::Date", align 8
  %this.addr = alloca ptr, align 8
  %dc.addr = alloca ptr, align 8
  %comp.addr = alloca i32, align 4
  %freq.addr = alloca i32, align 4
  %accuracy.addr = alloca double, align 8
  %maxEvaluations.addr = alloca i64, align 8
  %guess.addr = alloca double, align 8
  %currentNotional = alloca double, align 8
  %agg.tmp = alloca %"class.QuantLib::Date", align 8
  %cleanup.dest.slot = alloca i32, align 4
  %agg.tmp3 = alloca %"class.QuantLib::Bond::Price", align 8
  %agg.tmp4 = alloca %"class.QuantLib::Date", align 8
  %0 = getelementptr inbounds nuw { double, i32 }, ptr %price, i32 0, i32 0
  store double %price.coerce0, ptr %0, align 8
  %1 = getelementptr inbounds nuw { double, i32 }, ptr %price, i32 0, i32 1
  store i32 %price.coerce1, ptr %1, align 8
  %coerce.dive = getelementptr inbounds nuw %"class.QuantLib::Date", ptr %settlement, i32 0, i32 0
  store i64 %settlement.coerce, ptr %coerce.dive, align 8
  store ptr %this, ptr %this.addr, align 8, !tbaa !3
  store ptr %dc, ptr %dc.addr, align 8, !tbaa !3
  store i32 %comp, ptr %comp.addr, align 4, !tbaa !77
  store i32 %freq, ptr %freq.addr, align 4, !tbaa !79
  store double %accuracy, ptr %accuracy.addr, align 8, !tbaa !62
  store i64 %maxEvaluations, ptr %maxEvaluations.addr, align 8, !tbaa !56
  store double %guess, ptr %guess.addr, align 8, !tbaa !62
  %this1 = load ptr, ptr %this.addr, align 8
  call void @llvm.lifetime.start.p0(i64 8, ptr %currentNotional) #17
  call void @llvm.memcpy.p0.p0.i64(ptr align 8 %agg.tmp, ptr align 8 %settlement, i64 8, i1 false), !tbaa.struct !55
  %coerce.dive2 = getelementptr inbounds nuw %"class.QuantLib::Date", ptr %agg.tmp, i32 0, i32 0
  %2 = load i64, ptr %coerce.dive2, align 8
  %vtable = load ptr, ptr %this1, align 8, !tbaa !20
  %vfn = getelementptr inbounds ptr, ptr %vtable, i64 10
  %3 = load ptr, ptr %vfn, align 8
  %call = call noundef double %3(ptr noundef nonnull align 8 dereferenceable(248) %this1, i64 %2)
  store double %call, ptr %currentNotional, align 8, !tbaa !62
  %4 = load double, ptr %currentNotional, align 8, !tbaa !62
  %cmp = fcmp oeq double %4, 0.000000e+00
  br i1 %cmp, label %if.then, label %if.end

if.then:                                          ; preds = %entry
  store double 0.000000e+00, ptr %retval, align 8
  store i32 1, ptr %cleanup.dest.slot, align 4
  br label %cleanup

if.end:                                           ; preds = %entry
  call void @llvm.memcpy.p0.p0.i64(ptr align 8 %agg.tmp3, ptr align 8 %price, i64 16, i1 false), !tbaa.struct !83
  %5 = load ptr, ptr %dc.addr, align 8, !tbaa !3
  %6 = load i32, ptr %comp.addr, align 4, !tbaa !77
  %7 = load i32, ptr %freq.addr, align 4, !tbaa !79
  call void @llvm.memcpy.p0.p0.i64(ptr align 8 %agg.tmp4, ptr align 8 %settlement, i64 8, i1 false), !tbaa.struct !55
  %8 = load double, ptr %accuracy.addr, align 8, !tbaa !62
  %9 = load i64, ptr %maxEvaluations.addr, align 8, !tbaa !56
  %10 = load double, ptr %guess.addr, align 8, !tbaa !62
  %11 = getelementptr inbounds nuw { double, i32 }, ptr %agg.tmp3, i32 0, i32 0
  %12 = load double, ptr %11, align 8
  %13 = getelementptr inbounds nuw { double, i32 }, ptr %agg.tmp3, i32 0, i32 1
  %14 = load i32, ptr %13, align 8
  %coerce.dive5 = getelementptr inbounds nuw %"class.QuantLib::Date", ptr %agg.tmp4, i32 0, i32 0
  %15 = load i64, ptr %coerce.dive5, align 8
  %call6 = call noundef double @_ZN8QuantLib13BondFunctions5yieldERKNS_4BondENS1_5PriceERKNS_10DayCounterENS_11CompoundingENS_9FrequencyENS_4DateEdmd(ptr noundef nonnull align 8 dereferenceable(248) %this1, double %12, i32 %14, ptr noundef nonnull align 8 dereferenceable(16) %5, i32 noundef %6, i32 noundef %7, i64 %15, double noundef %8, i64 noundef %9, double noundef %10)
  store double %call6, ptr %retval, align 8
  store i32 1, ptr %cleanup.dest.slot, align 4
  br label %cleanup

cleanup:                                          ; preds = %if.end, %if.then
  call void @llvm.lifetime.end.p0(i64 8, ptr %currentNotional) #17
  %16 = load double, ptr %retval, align 8
  ret double %16
}

; Function Attrs: mustprogress nounwind uwtable
define linkonce_odr void @_ZN8QuantLib4Bond5PriceC2EdNS1_4TypeE(ptr noundef nonnull align 8 dereferenceable(12) %this, double noundef %amount, i32 noundef %type) unnamed_addr #1 comdat align 2 {
entry:
  %this.addr = alloca ptr, align 8
  %amount.addr = alloca double, align 8
  %type.addr = alloca i32, align 4
  store ptr %this, ptr %this.addr, align 8, !tbaa !3
  store double %amount, ptr %amount.addr, align 8, !tbaa !62
  store i32 %type, ptr %type.addr, align 4, !tbaa !81
  %this1 = load ptr, ptr %this.addr, align 8
  %amount_ = getelementptr inbounds nuw %"class.QuantLib::Bond::Price", ptr %this1, i32 0, i32 0
  %0 = load double, ptr %amount.addr, align 8, !tbaa !62
  store double %0, ptr %amount_, align 8, !tbaa !84
  %type_ = getelementptr inbounds nuw %"class.QuantLib::Bond::Price", ptr %this1, i32 0, i32 1
  %1 = load i32, ptr %type.addr, align 4, !tbaa !81
  store i32 %1, ptr %type_, align 8, !tbaa !86
  ret void
}

; Function Attrs: mustprogress uwtable
define noundef double @_ZNK8QuantLib4Bond5yieldEdRKNS_10DayCounterENS_11CompoundingENS_9FrequencyENS_4DateEdmdNS0_5Price4TypeE(ptr noundef nonnull align 8 dereferenceable(248) %this, double noundef %price, ptr noundef nonnull align 8 dereferenceable(16) %dc, i32 noundef %comp, i32 noundef %freq, i64 %settlement.coerce, double noundef %accuracy, i64 noundef %maxEvaluations, double noundef %guess, i32 noundef %priceType) #2 align 2 {
entry:
  %settlement = alloca %"class.QuantLib::Date", align 8
  %this.addr = alloca ptr, align 8
  %price.addr = alloca double, align 8
  %dc.addr = alloca ptr, align 8
  %comp.addr = alloca i32, align 4
  %freq.addr = alloca i32, align 4
  %accuracy.addr = alloca double, align 8
  %maxEvaluations.addr = alloca i64, align 8
  %guess.addr = alloca double, align 8
  %priceType.addr = alloca i32, align 4
  %agg.tmp = alloca %"class.QuantLib::Bond::Price", align 8
  %agg.tmp2 = alloca %"class.QuantLib::Date", align 8
  %coerce.dive = getelementptr inbounds nuw %"class.QuantLib::Date", ptr %settlement, i32 0, i32 0
  store i64 %settlement.coerce, ptr %coerce.dive, align 8
  store ptr %this, ptr %this.addr, align 8, !tbaa !3
  store double %price, ptr %price.addr, align 8, !tbaa !62
  store ptr %dc, ptr %dc.addr, align 8, !tbaa !3
  store i32 %comp, ptr %comp.addr, align 4, !tbaa !77
  store i32 %freq, ptr %freq.addr, align 4, !tbaa !79
  store double %accuracy, ptr %accuracy.addr, align 8, !tbaa !62
  store i64 %maxEvaluations, ptr %maxEvaluations.addr, align 8, !tbaa !56
  store double %guess, ptr %guess.addr, align 8, !tbaa !62
  store i32 %priceType, ptr %priceType.addr, align 4, !tbaa !81
  %this1 = load ptr, ptr %this.addr, align 8
  %0 = load double, ptr %price.addr, align 8, !tbaa !62
  %1 = load i32, ptr %priceType.addr, align 4, !tbaa !81
  call void @_ZN8QuantLib4Bond5PriceC2EdNS1_4TypeE(ptr noundef nonnull align 8 dereferenceable(12) %agg.tmp, double noundef %0, i32 noundef %1)
  %2 = load ptr, ptr %dc.addr, align 8, !tbaa !3
  %3 = load i32, ptr %comp.addr, align 4, !tbaa !77
  %4 = load i32, ptr %freq.addr, align 4, !tbaa !79
  call void @llvm.memcpy.p0.p0.i64(ptr align 8 %agg.tmp2, ptr align 8 %settlement, i64 8, i1 false), !tbaa.struct !55
  %5 = load double, ptr %accuracy.addr, align 8, !tbaa !62
  %6 = load i64, ptr %maxEvaluations.addr, align 8, !tbaa !56
  %7 = load double, ptr %guess.addr, align 8, !tbaa !62
  %8 = getelementptr inbounds nuw { double, i32 }, ptr %agg.tmp, i32 0, i32 0
  %9 = load double, ptr %8, align 8
  %10 = getelementptr inbounds nuw { double, i32 }, ptr %agg.tmp, i32 0, i32 1
  %11 = load i32, ptr %10, align 8
  %coerce.dive3 = getelementptr inbounds nuw %"class.QuantLib::Date", ptr %agg.tmp2, i32 0, i32 0
  %12 = load i64, ptr %coerce.dive3, align 8
  %call = call noundef double @_ZNK8QuantLib4Bond5yieldENS0_5PriceERKNS_10DayCounterENS_11CompoundingENS_9FrequencyENS_4DateEdmd(ptr noundef nonnull align 8 dereferenceable(248) %this1, double %9, i32 %11, ptr noundef nonnull align 8 dereferenceable(16) %2, i32 noundef %3, i32 noundef %4, i64 %12, double noundef %5, i64 noundef %6, double noundef %7)
  ret double %call
}