; Function Attrs: mustprogress uwtable
define noundef double @_ZNK8QuantLib4Bond5yieldEdRKNS_10DayCounterENS_11CompoundingENS_9FrequencyENS_4DateEdmdNS0_5Price4TypeE(ptr noundef nonnull align 8 dereferenceable(248) %this, double noundef %price, ptr noundef nonnull align 8 dereferenceable(16) %dc, i32 noundef %comp, i32 noundef %freq, i64 %settlement.coerce, double noundef %accuracy, i64 noundef %maxEvaluations, double noundef %guess, i32 noundef %priceType) local_unnamed_addr #9 align 2 {
entry:
  %vtable.i = load ptr, ptr %this, align 8, !tbaa !33
  %vfn.i = getelementptr inbounds i8, ptr %vtable.i, i64 80
  %0 = load ptr, ptr %vfn.i, align 8
  %call.i = tail call noundef double %0(ptr noundef nonnull align 8 dereferenceable(248) %this, i64 %settlement.coerce)
  %cmp.i = fcmp oeq double %call.i, 0.000000e+00
  br i1 %cmp.i, label %_ZNK8QuantLib4Bond5yieldENS0_5PriceERKNS_10DayCounterENS_11CompoundingENS_9FrequencyENS_4DateEdmd.exit, label %if.end.i

if.end.i:                                         ; preds = %entry
  %call6.i = tail call noundef double @_ZN8QuantLib13BondFunctions5yieldERKNS_4BondENS1_5PriceERKNS_10DayCounterENS_11CompoundingENS_9FrequencyENS_4DateEdmd(ptr noundef nonnull align 8 dereferenceable(248) %this, double %price, i32 %priceType, ptr noundef nonnull align 8 dereferenceable(16) %dc, i32 noundef %comp, i32 noundef %freq, i64 %settlement.coerce, double noundef %accuracy, i64 noundef %maxEvaluations, double noundef %guess)
  br label %_ZNK8QuantLib4Bond5yieldENS0_5PriceERKNS_10DayCounterENS_11CompoundingENS_9FrequencyENS_4DateEdmd.exit

_ZNK8QuantLib4Bond5yieldENS0_5PriceERKNS_10DayCounterENS_11CompoundingENS_9FrequencyENS_4DateEdmd.exit: ; preds = %entry, %if.end.i
  %retval.0.i = phi double [ %call6.i, %if.end.i ], [ 0.000000e+00, %entry ]
  ret double %retval.0.i
}